target datalayout = "e-m:e-p270:32:32-p271:32:32-p272:64:64-i64:64-i128:128-f80:128-n8:16:32:64-S128"
target triple = "x86_64-pc-linux-gnu"

%struct.reassembly_table = type { ptr, ptr, ptr, ptr, ptr }
%struct.reassembly_table_functions = type { ptr, ptr, ptr, ptr, ptr, ptr }

@.str.1107 = private unnamed_addr constant [20 x i8] c"Tabular Data Stream\00", align 1
@.str.1108 = private unnamed_addr constant [4 x i8] c"TDS\00", align 1
@.str.1109 = private unnamed_addr constant [4 x i8] c"tds\00", align 1
@proto_tds = internal global i32 0, align 4
@tds_tcp_handle = internal global ptr null, align 8
@.str.1110 = private unnamed_addr constant [18 x i8] c"desegment_buffers\00", align 1
@.str.1111 = private unnamed_addr constant [54 x i8] c"Reassemble TDS buffers spanning multiple TCP segments\00", align 1
@.str.1112 = private unnamed_addr constant [207 x i8] c"Whether the TDS dissector should reassemble TDS buffers spanning multiple TCP segments. To use this option, you must also enable \22Allow subdissectors to reassemble TCP streams\22 in the TCP protocol settings.\00", align 1
@tds_desegment = internal global i8 1, align 1
@.str.1113 = private unnamed_addr constant [11 x i8] c"defragment\00", align 1
@.str.1114 = private unnamed_addr constant [57 x i8] c"Reassemble fragmented TDS messages with multiple buffers\00", align 1
@.str.1115 = private unnamed_addr constant [86 x i8] c"Whether the TDS dissector should defragment messages spanning multiple Netlib buffers\00", align 1
@tds_defragment = internal global i8 1, align 1
@.str.1116 = private unnamed_addr constant [14 x i8] c"protocol_type\00", align 1
@.str.1117 = private unnamed_addr constant [18 x i8] c"TDS Protocol Type\00", align 1
@.str.1118 = private unnamed_addr constant [49 x i8] c"Hint as to version of TDS protocol being decoded\00", align 1
@tds_protocol_type = internal global i32 65535, align 4
@.str.1119 = private unnamed_addr constant [12 x i8] c"endian_type\00", align 1
@.str.1120 = private unnamed_addr constant [14 x i8] c"TDS decode as\00", align 1
@.str.1121 = private unnamed_addr constant [115 x i8] c"Hint as to whether to decode TDS protocol as little-endian or big-endian. (TDS7/8 always decoded as little-endian)\00", align 1
@tds_little_endian = internal global i32 1, align 4
@tds_reassembly_table = internal global %struct.reassembly_table zeroinitializer, align 8
@addresses_ports_reassembly_table_functions = external constant %struct.reassembly_table_functions, align 8

; Function Attrs: null_pointer_is_valid sspstrong uwtable
define hidden void @proto_register_tds() #0 {
  %1 = alloca ptr, align 8
  %2 = alloca ptr, align 8
  call void @llvm.lifetime.start.p0(i64 8, ptr %1) #11
  call void @llvm.lifetime.start.p0(i64 8, ptr %2) #11
  %3 = call i32 @proto_register_protocol(ptr noundef @.str.1107, ptr noundef @.str.1108, ptr noundef @.str.1109)
  store i32 %3, ptr @proto_tds, align 4
  %4 = load i32, ptr @proto_tds, align 4
  call void @proto_register_field_array(i32 noundef %4, ptr noundef @proto_register_tds.hf, i32 noundef 596)
  call void @proto_register_subtree_array(ptr noundef @proto_register_tds.ett, i32 noundef 33)
  %5 = load i32, ptr @proto_tds, align 4
  %6 = call ptr @expert_register_protocol(i32 noundef %5)
  store ptr %6, ptr %2, align 8
  %7 = load ptr, ptr %2, align 8
  call void @expert_register_field_array(ptr noundef %7, ptr noundef @proto_register_tds.ei, i32 noundef 7)
  %8 = load i32, ptr @proto_tds, align 4
  %9 = call ptr @register_dissector(ptr noundef @.str.1109, ptr noundef @dissect_tds, i32 noundef %8)
  store ptr %9, ptr @tds_tcp_handle, align 8
  %10 = load i32, ptr @proto_tds, align 4
  %11 = call ptr @prefs_register_protocol(i32 noundef %10, ptr noundef @apply_tds_prefs)
  store ptr %11, ptr %1, align 8
  %12 = load ptr, ptr %1, align 8
  call void @prefs_register_bool_preference(ptr noundef %12, ptr noundef @.str.1110, ptr noundef @.str.1111, ptr noundef @.str.1112, ptr noundef @tds_desegment)
  %13 = load ptr, ptr %1, align 8
  call void @prefs_register_bool_preference(ptr noundef %13, ptr noundef @.str.1113, ptr noundef @.str.1114, ptr noundef @.str.1115, ptr noundef @tds_defragment)
  %14 = load ptr, ptr %1, align 8
  call void @prefs_register_enum_preference(ptr noundef %14, ptr noundef @.str.1116, ptr noundef @.str.1117, ptr noundef @.str.1118, ptr noundef @tds_protocol_type, ptr noundef @tds_protocol_type_options, i1 noundef zeroext false)
  %15 = load ptr, ptr %1, align 8
  call void @prefs_register_enum_preference(ptr noundef %15, ptr noundef @.str.1119, ptr noundef @.str.1120, ptr noundef @.str.1121, ptr noundef @tds_little_endian, ptr noundef @tds_endian_type_options, i1 noundef zeroext false)
  call void @reassembly_table_register(ptr noundef @tds_reassembly_table, ptr noundef @addresses_ports_reassembly_table_functions)
  call void @llvm.lifetime.end.p0(i64 8, ptr %2) #11
  call void @llvm.lifetime.end.p0(i64 8, ptr %1) #11
  ret void
}