; Function Attrs: null_pointer_is_valid sspstrong uwtable
define hidden void @proto_register_tds() local_unnamed_addr #0 {
  %1 = tail call i32 @proto_register_protocol(ptr noundef nonnull @.str.1107, ptr noundef nonnull @.str.1108, ptr noundef nonnull @.str.1109)
  store i32 %1, ptr @proto_tds, align 4
  tail call void @proto_register_field_array(i32 noundef %1, ptr noundef nonnull @proto_register_tds.hf, i32 noundef 596)
  tail call void @proto_register_subtree_array(ptr noundef nonnull @proto_register_tds.ett, i32 noundef 33)
  %2 = load i32, ptr @proto_tds, align 4
  %3 = tail call ptr @expert_register_protocol(i32 noundef %2)
  tail call void @expert_register_field_array(ptr noundef %3, ptr noundef nonnull @proto_register_tds.ei, i32 noundef 7)
  %4 = load i32, ptr @proto_tds, align 4
  %5 = tail call ptr @register_dissector(ptr noundef nonnull @.str.1109, ptr noundef nonnull @dissect_tds, i32 noundef %4)
  store ptr %5, ptr @tds_tcp_handle, align 8
  %6 = load i32, ptr @proto_tds, align 4
  %7 = tail call ptr @prefs_register_protocol(i32 noundef %6, ptr noundef nonnull @apply_tds_prefs)
  tail call void @prefs_register_bool_preference(ptr noundef %7, ptr noundef nonnull @.str.1110, ptr noundef nonnull @.str.1111, ptr noundef nonnull @.str.1112, ptr noundef nonnull @tds_desegment)
  tail call void @prefs_register_bool_preference(ptr noundef %7, ptr noundef nonnull @.str.1113, ptr noundef nonnull @.str.1114, ptr noundef nonnull @.str.1115, ptr noundef nonnull @tds_defragment)
  tail call void @prefs_register_enum_preference(ptr noundef %7, ptr noundef nonnull @.str.1116, ptr noundef nonnull @.str.1117, ptr noundef nonnull @.str.1118, ptr noundef nonnull @tds_protocol_type, ptr noundef nonnull @tds_protocol_type_options, i1 noundef zeroext false)
  tail call void @prefs_register_enum_preference(ptr noundef %7, ptr noundef nonnull @.str.1119, ptr noundef nonnull @.str.1120, ptr noundef nonnull @.str.1121, ptr noundef nonnull @tds_little_endian, ptr noundef nonnull @tds_endian_type_options, i1 noundef zeroext false)
  tail call void @reassembly_table_register(ptr noundef nonnull @tds_reassembly_table, ptr noundef nonnull @addresses_ports_reassembly_table_functions)
  ret void
}